; Function Attrs: uwtable
define void @_ZThn16_N18FilterMutualGlobal24filterScriptFunctionNameEi(ptr dead_on_unwind noalias nocapture writable writeonly sret(%class.QString) align 8 %0, ptr nocapture noundef readnone %1, i32 noundef %2) unnamed_addr #12 align 2 {
  tail call void @llvm.experimental.noalias.scope.decl(metadata !65)
  %cond.i = icmp eq i32 %2, 0
  br i1 %cond.i, label %4, label %_ZN18FilterMutualGlobal24filterScriptFunctionNameEi.exit

4:                                                ; preds = %3
  %5 = tail call noundef ptr @_ZN7QString16fromAscii_helperEPKci(ptr noundef nonnull @.str.57, i32 noundef 14), !noalias !65
  br label %_ZN18FilterMutualGlobal24filterScriptFunctionNameEi.exit

_ZN18FilterMutualGlobal24filterScriptFunctionNameEi.exit: ; preds = %3, %4
  %storemerge.i = phi ptr [ %5, %4 ], [ @_ZN10QArrayData11shared_nullE, %3 ]
  store ptr %storemerge.i, ptr %0, align 8, !alias.scope !65
  ret void
}